; Function Attrs: nounwind uwtable
define nonnull ptr @l_Option_beqOption____x40_Init_Data_Option_Basic___hyg_160____at_Lean_Compiler_LCNF_saveSpecParamInfo___spec__1___boxed(ptr noundef %0, ptr noundef %1) local_unnamed_addr #2 {
  %3 = ptrtoint ptr %0 to i64
  %4 = and i64 %3, 1
  %.not.i26.i = icmp eq i64 %4, 0
  br i1 %.not.i26.i, label %8, label %5

5:                                                ; preds = %2
  %6 = lshr i64 %3, 1
  %7 = trunc i64 %6 to i32
  br label %lean_obj_tag.exit.i

8:                                                ; preds = %2
  %9 = getelementptr i8, ptr %0, i64 4
  %.val.i.i = load i32, ptr %9, align 4
  %10 = lshr i32 %.val.i.i, 24
  br label %lean_obj_tag.exit.i

lean_obj_tag.exit.i:                              ; preds = %8, %5
  %.0.i27.i = phi i32 [ %7, %5 ], [ %10, %8 ]
  %11 = icmp eq i32 %.0.i27.i, 0
  %12 = ptrtoint ptr %1 to i64
  %13 = and i64 %12, 1
  %.not.i28.i = icmp eq i64 %13, 0
  br i1 %11, label %14, label %22

14:                                               ; preds = %lean_obj_tag.exit.i
  br i1 %.not.i28.i, label %18, label %15

15:                                               ; preds = %14
  %16 = lshr i64 %12, 1
  %17 = trunc i64 %16 to i32
  br label %lean_obj_tag.exit31.i

18:                                               ; preds = %14
  %19 = getelementptr i8, ptr %1, i64 4
  %.val.i30.i = load i32, ptr %19, align 4
  %20 = lshr i32 %.val.i30.i, 24
  br label %lean_obj_tag.exit31.i

lean_obj_tag.exit31.i:                            ; preds = %18, %15
  %.0.i29.i = phi i32 [ %17, %15 ], [ %20, %18 ]
  %21 = icmp eq i32 %.0.i29.i, 0
  %..i = zext i1 %21 to i8
  br label %l_Option_beqOption____x40_Init_Data_Option_Basic___hyg_160____at_Lean_Compiler_LCNF_saveSpecParamInfo___spec__1.exit

22:                                               ; preds = %lean_obj_tag.exit.i
  br i1 %.not.i28.i, label %26, label %23

23:                                               ; preds = %22
  %24 = lshr i64 %12, 1
  %25 = trunc i64 %24 to i32
  br label %lean_obj_tag.exit35.i

26:                                               ; preds = %22
  %27 = getelementptr i8, ptr %1, i64 4
  %.val.i34.i = load i32, ptr %27, align 4
  %28 = lshr i32 %.val.i34.i, 24
  br label %lean_obj_tag.exit35.i

lean_obj_tag.exit35.i:                            ; preds = %26, %23
  %.0.i33.i = phi i32 [ %25, %23 ], [ %28, %26 ]
  %29 = icmp eq i32 %.0.i33.i, 0
  br i1 %29, label %l_Option_beqOption____x40_Init_Data_Option_Basic___hyg_160____at_Lean_Compiler_LCNF_saveSpecParamInfo___spec__1.exit, label %lean_dec.exit22.i

lean_dec.exit22.i:                                ; preds = %lean_obj_tag.exit35.i
  %30 = getelementptr inbounds nuw i8, ptr %0, i64 8
  %31 = load ptr, ptr %30, align 8, !tbaa !9
  %32 = getelementptr inbounds nuw i8, ptr %1, i64 8
  %33 = load ptr, ptr %32, align 8, !tbaa !9
  %34 = getelementptr i8, ptr %31, i64 8
  %.val25.i = load i64, ptr %34, align 8, !tbaa !16
  %35 = shl i64 %.val25.i, 1
  %36 = getelementptr i8, ptr %33, i64 8
  %.val.i = load i64, ptr %36, align 8, !tbaa !16
  %37 = shl i64 %.val.i, 1
  %.not.i8 = icmp eq i64 %35, %37
  br i1 %.not.i8, label %38, label %l_Option_beqOption____x40_Init_Data_Option_Basic___hyg_160____at_Lean_Compiler_LCNF_saveSpecParamInfo___spec__1.exit

38:                                               ; preds = %lean_dec.exit22.i
  %39 = or disjoint i64 %35, 1
  %40 = inttoptr i64 %39 to ptr
  %41 = tail call zeroext i8 @l_Array_isEqvAux___at_Lean_Compiler_LCNF_saveSpecParamInfo___spec__2(ptr nonnull poison, ptr nonnull poison, ptr nonnull poison, ptr noundef nonnull %31, ptr noundef nonnull %33, ptr noundef nonnull %40, ptr nonnull poison)
  br label %l_Option_beqOption____x40_Init_Data_Option_Basic___hyg_160____at_Lean_Compiler_LCNF_saveSpecParamInfo___spec__1.exit

l_Option_beqOption____x40_Init_Data_Option_Basic___hyg_160____at_Lean_Compiler_LCNF_saveSpecParamInfo___spec__1.exit: ; preds = %lean_obj_tag.exit31.i, %lean_obj_tag.exit35.i, %lean_dec.exit22.i, %38
  %.0.i = phi i8 [ %..i, %lean_obj_tag.exit31.i ], [ 0, %lean_obj_tag.exit35.i ], [ %41, %38 ], [ 0, %lean_dec.exit22.i ]
  br i1 %.not.i28.i, label %42, label %lean_dec.exit5

42:                                               ; preds = %l_Option_beqOption____x40_Init_Data_Option_Basic___hyg_160____at_Lean_Compiler_LCNF_saveSpecParamInfo___spec__1.exit
  %43 = load i32, ptr %1, align 4, !tbaa !4
  %44 = icmp sgt i32 %43, 1
  br i1 %44, label %45, label %47, !prof !11

45:                                               ; preds = %42
  %46 = add nsw i32 %43, -1
  store i32 %46, ptr %1, align 4, !tbaa !4
  br label %lean_dec.exit5

47:                                               ; preds = %42
  %.not.i = icmp eq i32 %43, 0
  br i1 %.not.i, label %lean_dec.exit5, label %48

48:                                               ; preds = %47
  tail call void @lean_dec_ref_cold(ptr noundef nonnull %1) #8
  br label %lean_dec.exit5

lean_dec.exit5:                                   ; preds = %48, %47, %45, %l_Option_beqOption____x40_Init_Data_Option_Basic___hyg_160____at_Lean_Compiler_LCNF_saveSpecParamInfo___spec__1.exit
  br i1 %.not.i26.i, label %49, label %lean_dec.exit

49:                                               ; preds = %lean_dec.exit5
  %50 = load i32, ptr %0, align 4, !tbaa !4
  %51 = icmp sgt i32 %50, 1
  br i1 %51, label %52, label %54, !prof !11

52:                                               ; preds = %49
  %53 = add nsw i32 %50, -1
  store i32 %53, ptr %0, align 4, !tbaa !4
  br label %lean_dec.exit

54:                                               ; preds = %49
  %.not.i6 = icmp eq i32 %50, 0
  br i1 %.not.i6, label %lean_dec.exit, label %55

55:                                               ; preds = %54
  tail call void @lean_dec_ref_cold(ptr noundef nonnull %0) #8
  br label %lean_dec.exit

lean_dec.exit:                                    ; preds = %55, %54, %52, %lean_dec.exit5
  %56 = shl nuw nsw i8 %.0.i, 1
  %57 = or disjoint i8 %56, 1
  %58 = zext nneg i8 %57 to i64
  %59 = inttoptr i64 %58 to ptr
  ret ptr %59
}